target datalayout = "e-m:e-p270:32:32-p271:32:32-p272:64:64-i64:64-i128:128-f80:128-n8:16:32:64-S128"
target triple = "x86_64-pc-linux-gnu"

%struct.VP8EncIterator = type { i32, i32, ptr, ptr, ptr, ptr, ptr, ptr, ptr, ptr, ptr, [37 x i8], ptr, i32, [9 x i32], [9 x i32], [4 x [3 x i64]], i64, i64, ptr, i32, i32, i32, i32, [2 x [2 x i8]], ptr, ptr, ptr, ptr, ptr, ptr, [88 x i8], [3359 x i8] }

; Function Attrs: nounwind uwtable
define hidden void @VP8IteratorNzToBytes(ptr noundef %0) #0 {
  %2 = alloca ptr, align 8
  %3 = alloca i32, align 4
  %4 = alloca i32, align 4
  %5 = alloca ptr, align 8
  %6 = alloca ptr, align 8
  store ptr %0, ptr %2, align 8, !tbaa !3
  call void @llvm.lifetime.start.p0(i64 4, ptr %3) #6
  %7 = load ptr, ptr %2, align 8, !tbaa !3
  %8 = getelementptr inbounds nuw %struct.VP8EncIterator, ptr %7, i32 0, i32 10
  %9 = load ptr, ptr %8, align 8, !tbaa !38
  %10 = getelementptr inbounds i32, ptr %9, i64 0
  %11 = load i32, ptr %10, align 4, !tbaa !7
  store i32 %11, ptr %3, align 4, !tbaa !7
  call void @llvm.lifetime.start.p0(i64 4, ptr %4) #6
  %12 = load ptr, ptr %2, align 8, !tbaa !3
  %13 = getelementptr inbounds nuw %struct.VP8EncIterator, ptr %12, i32 0, i32 10
  %14 = load ptr, ptr %13, align 8, !tbaa !38
  %15 = getelementptr inbounds i32, ptr %14, i64 -1
  %16 = load i32, ptr %15, align 4, !tbaa !7
  store i32 %16, ptr %4, align 4, !tbaa !7
  call void @llvm.lifetime.start.p0(i64 8, ptr %5) #6
  %17 = load ptr, ptr %2, align 8, !tbaa !3
  %18 = getelementptr inbounds nuw %struct.VP8EncIterator, ptr %17, i32 0, i32 14
  %19 = getelementptr inbounds [9 x i32], ptr %18, i64 0, i64 0
  store ptr %19, ptr %5, align 8, !tbaa !87
  call void @llvm.lifetime.start.p0(i64 8, ptr %6) #6
  %20 = load ptr, ptr %2, align 8, !tbaa !3
  %21 = getelementptr inbounds nuw %struct.VP8EncIterator, ptr %20, i32 0, i32 15
  %22 = getelementptr inbounds [9 x i32], ptr %21, i64 0, i64 0
  store ptr %22, ptr %6, align 8, !tbaa !87
  %23 = load i32, ptr %3, align 4, !tbaa !7
  %24 = and i32 %23, 4096
  %25 = icmp ne i32 %24, 0
  %26 = xor i1 %25, true
  %27 = xor i1 %26, true
  %28 = zext i1 %27 to i32
  %29 = load ptr, ptr %5, align 8, !tbaa !87
  %30 = getelementptr inbounds i32, ptr %29, i64 0
  store i32 %28, ptr %30, align 4, !tbaa !7
  %31 = load i32, ptr %3, align 4, !tbaa !7
  %32 = and i32 %31, 8192
  %33 = icmp ne i32 %32, 0
  %34 = xor i1 %33, true
  %35 = xor i1 %34, true
  %36 = zext i1 %35 to i32
  %37 = load ptr, ptr %5, align 8, !tbaa !87
  %38 = getelementptr inbounds i32, ptr %37, i64 1
  store i32 %36, ptr %38, align 4, !tbaa !7
  %39 = load i32, ptr %3, align 4, !tbaa !7
  %40 = and i32 %39, 16384
  %41 = icmp ne i32 %40, 0
  %42 = xor i1 %41, true
  %43 = xor i1 %42, true
  %44 = zext i1 %43 to i32
  %45 = load ptr, ptr %5, align 8, !tbaa !87
  %46 = getelementptr inbounds i32, ptr %45, i64 2
  store i32 %44, ptr %46, align 4, !tbaa !7
  %47 = load i32, ptr %3, align 4, !tbaa !7
  %48 = and i32 %47, 32768
  %49 = icmp ne i32 %48, 0
  %50 = xor i1 %49, true
  %51 = xor i1 %50, true
  %52 = zext i1 %51 to i32
  %53 = load ptr, ptr %5, align 8, !tbaa !87
  %54 = getelementptr inbounds i32, ptr %53, i64 3
  store i32 %52, ptr %54, align 4, !tbaa !7
  %55 = load i32, ptr %3, align 4, !tbaa !7
  %56 = and i32 %55, 262144
  %57 = icmp ne i32 %56, 0
  %58 = xor i1 %57, true
  %59 = xor i1 %58, true
  %60 = zext i1 %59 to i32
  %61 = load ptr, ptr %5, align 8, !tbaa !87
  %62 = getelementptr inbounds i32, ptr %61, i64 4
  store i32 %60, ptr %62, align 4, !tbaa !7
  %63 = load i32, ptr %3, align 4, !tbaa !7
  %64 = and i32 %63, 524288
  %65 = icmp ne i32 %64, 0
  %66 = xor i1 %65, true
  %67 = xor i1 %66, true
  %68 = zext i1 %67 to i32
  %69 = load ptr, ptr %5, align 8, !tbaa !87
  %70 = getelementptr inbounds i32, ptr %69, i64 5
  store i32 %68, ptr %70, align 4, !tbaa !7
  %71 = load i32, ptr %3, align 4, !tbaa !7
  %72 = and i32 %71, 4194304
  %73 = icmp ne i32 %72, 0
  %74 = xor i1 %73, true
  %75 = xor i1 %74, true
  %76 = zext i1 %75 to i32
  %77 = load ptr, ptr %5, align 8, !tbaa !87
  %78 = getelementptr inbounds i32, ptr %77, i64 6
  store i32 %76, ptr %78, align 4, !tbaa !7
  %79 = load i32, ptr %3, align 4, !tbaa !7
  %80 = and i32 %79, 8388608
  %81 = icmp ne i32 %80, 0
  %82 = xor i1 %81, true
  %83 = xor i1 %82, true
  %84 = zext i1 %83 to i32
  %85 = load ptr, ptr %5, align 8, !tbaa !87
  %86 = getelementptr inbounds i32, ptr %85, i64 7
  store i32 %84, ptr %86, align 4, !tbaa !7
  %87 = load i32, ptr %3, align 4, !tbaa !7
  %88 = and i32 %87, 16777216
  %89 = icmp ne i32 %88, 0
  %90 = xor i1 %89, true
  %91 = xor i1 %90, true
  %92 = zext i1 %91 to i32
  %93 = load ptr, ptr %5, align 8, !tbaa !87
  %94 = getelementptr inbounds i32, ptr %93, i64 8
  store i32 %92, ptr %94, align 4, !tbaa !7
  %95 = load i32, ptr %4, align 4, !tbaa !7
  %96 = and i32 %95, 8
  %97 = icmp ne i32 %96, 0
  %98 = xor i1 %97, true
  %99 = xor i1 %98, true
  %100 = zext i1 %99 to i32
  %101 = load ptr, ptr %6, align 8, !tbaa !87
  %102 = getelementptr inbounds i32, ptr %101, i64 0
  store i32 %100, ptr %102, align 4, !tbaa !7
  %103 = load i32, ptr %4, align 4, !tbaa !7
  %104 = and i32 %103, 128
  %105 = icmp ne i32 %104, 0
  %106 = xor i1 %105, true
  %107 = xor i1 %106, true
  %108 = zext i1 %107 to i32
  %109 = load ptr, ptr %6, align 8, !tbaa !87
  %110 = getelementptr inbounds i32, ptr %109, i64 1
  store i32 %108, ptr %110, align 4, !tbaa !7
  %111 = load i32, ptr %4, align 4, !tbaa !7
  %112 = and i32 %111, 2048
  %113 = icmp ne i32 %112, 0
  %114 = xor i1 %113, true
  %115 = xor i1 %114, true
  %116 = zext i1 %115 to i32
  %117 = load ptr, ptr %6, align 8, !tbaa !87
  %118 = getelementptr inbounds i32, ptr %117, i64 2
  store i32 %116, ptr %118, align 4, !tbaa !7
  %119 = load i32, ptr %4, align 4, !tbaa !7
  %120 = and i32 %119, 32768
  %121 = icmp ne i32 %120, 0
  %122 = xor i1 %121, true
  %123 = xor i1 %122, true
  %124 = zext i1 %123 to i32
  %125 = load ptr, ptr %6, align 8, !tbaa !87
  %126 = getelementptr inbounds i32, ptr %125, i64 3
  store i32 %124, ptr %126, align 4, !tbaa !7
  %127 = load i32, ptr %4, align 4, !tbaa !7
  %128 = and i32 %127, 131072
  %129 = icmp ne i32 %128, 0
  %130 = xor i1 %129, true
  %131 = xor i1 %130, true
  %132 = zext i1 %131 to i32
  %133 = load ptr, ptr %6, align 8, !tbaa !87
  %134 = getelementptr inbounds i32, ptr %133, i64 4
  store i32 %132, ptr %134, align 4, !tbaa !7
  %135 = load i32, ptr %4, align 4, !tbaa !7
  %136 = and i32 %135, 524288
  %137 = icmp ne i32 %136, 0
  %138 = xor i1 %137, true
  %139 = xor i1 %138, true
  %140 = zext i1 %139 to i32
  %141 = load ptr, ptr %6, align 8, !tbaa !87
  %142 = getelementptr inbounds i32, ptr %141, i64 5
  store i32 %140, ptr %142, align 4, !tbaa !7
  %143 = load i32, ptr %4, align 4, !tbaa !7
  %144 = and i32 %143, 2097152
  %145 = icmp ne i32 %144, 0
  %146 = xor i1 %145, true
  %147 = xor i1 %146, true
  %148 = zext i1 %147 to i32
  %149 = load ptr, ptr %6, align 8, !tbaa !87
  %150 = getelementptr inbounds i32, ptr %149, i64 6
  store i32 %148, ptr %150, align 4, !tbaa !7
  %151 = load i32, ptr %4, align 4, !tbaa !7
  %152 = and i32 %151, 8388608
  %153 = icmp ne i32 %152, 0
  %154 = xor i1 %153, true
  %155 = xor i1 %154, true
  %156 = zext i1 %155 to i32
  %157 = load ptr, ptr %6, align 8, !tbaa !87
  %158 = getelementptr inbounds i32, ptr %157, i64 7
  store i32 %156, ptr %158, align 4, !tbaa !7
  call void @llvm.lifetime.end.p0(i64 8, ptr %6) #6
  call void @llvm.lifetime.end.p0(i64 8, ptr %5) #6
  call void @llvm.lifetime.end.p0(i64 4, ptr %4) #6
  call void @llvm.lifetime.end.p0(i64 4, ptr %3) #6
  ret void
}