; Function Attrs: mustprogress nofree norecurse nosync nounwind willreturn memory(read, argmem: readwrite, inaccessiblemem: none) uwtable
define hidden void @VP8IteratorNzToBytes(ptr noundef captures(none) initializes((132, 200)) %0) local_unnamed_addr #7 {
  %2 = getelementptr inbounds nuw i8, ptr %0, i64 72
  %3 = load ptr, ptr %2, align 8, !tbaa !35
  %4 = load i32, ptr %3, align 4, !tbaa !47
  %5 = getelementptr inbounds i8, ptr %3, i64 -4
  %6 = load i32, ptr %5, align 4, !tbaa !47
  %7 = getelementptr inbounds nuw i8, ptr %0, i64 132
  %8 = getelementptr inbounds nuw i8, ptr %0, i64 168
  %9 = lshr i32 %4, 12
  %.lobit = and i32 %9, 1
  store i32 %.lobit, ptr %7, align 4, !tbaa !47
  %10 = lshr i32 %4, 13
  %.lobit37 = and i32 %10, 1
  %11 = getelementptr inbounds nuw i8, ptr %0, i64 136
  store i32 %.lobit37, ptr %11, align 4, !tbaa !47
  %12 = lshr i32 %4, 14
  %.lobit38 = and i32 %12, 1
  %13 = getelementptr inbounds nuw i8, ptr %0, i64 140
  store i32 %.lobit38, ptr %13, align 4, !tbaa !47
  %14 = lshr i32 %4, 15
  %.lobit39 = and i32 %14, 1
  %15 = getelementptr inbounds nuw i8, ptr %0, i64 144
  store i32 %.lobit39, ptr %15, align 4, !tbaa !47
  %16 = lshr i32 %4, 18
  %.lobit40 = and i32 %16, 1
  %17 = getelementptr inbounds nuw i8, ptr %0, i64 148
  store i32 %.lobit40, ptr %17, align 4, !tbaa !47
  %18 = lshr i32 %4, 19
  %.lobit41 = and i32 %18, 1
  %19 = getelementptr inbounds nuw i8, ptr %0, i64 152
  store i32 %.lobit41, ptr %19, align 4, !tbaa !47
  %20 = lshr i32 %4, 22
  %.lobit42 = and i32 %20, 1
  %21 = getelementptr inbounds nuw i8, ptr %0, i64 156
  store i32 %.lobit42, ptr %21, align 4, !tbaa !47
  %22 = lshr i32 %4, 23
  %.lobit43 = and i32 %22, 1
  %23 = getelementptr inbounds nuw i8, ptr %0, i64 160
  store i32 %.lobit43, ptr %23, align 4, !tbaa !47
  %24 = lshr i32 %4, 24
  %.lobit44 = and i32 %24, 1
  %25 = getelementptr inbounds nuw i8, ptr %0, i64 164
  store i32 %.lobit44, ptr %25, align 4, !tbaa !47
  %26 = lshr i32 %6, 3
  %.lobit45 = and i32 %26, 1
  store i32 %.lobit45, ptr %8, align 4, !tbaa !47
  %27 = lshr i32 %6, 7
  %.lobit46 = and i32 %27, 1
  %28 = getelementptr inbounds nuw i8, ptr %0, i64 172
  store i32 %.lobit46, ptr %28, align 4, !tbaa !47
  %29 = lshr i32 %6, 11
  %.lobit47 = and i32 %29, 1
  %30 = getelementptr inbounds nuw i8, ptr %0, i64 176
  store i32 %.lobit47, ptr %30, align 4, !tbaa !47
  %31 = lshr i32 %6, 15
  %.lobit48 = and i32 %31, 1
  %32 = getelementptr inbounds nuw i8, ptr %0, i64 180
  store i32 %.lobit48, ptr %32, align 4, !tbaa !47
  %33 = lshr i32 %6, 17
  %.lobit49 = and i32 %33, 1
  %34 = getelementptr inbounds nuw i8, ptr %0, i64 184
  store i32 %.lobit49, ptr %34, align 4, !tbaa !47
  %35 = lshr i32 %6, 19
  %.lobit50 = and i32 %35, 1
  %36 = getelementptr inbounds nuw i8, ptr %0, i64 188
  store i32 %.lobit50, ptr %36, align 4, !tbaa !47
  %37 = lshr i32 %6, 21
  %.lobit51 = and i32 %37, 1
  %38 = getelementptr inbounds nuw i8, ptr %0, i64 192
  store i32 %.lobit51, ptr %38, align 4, !tbaa !47
  %39 = lshr i32 %6, 23
  %.lobit52 = and i32 %39, 1
  %40 = getelementptr inbounds nuw i8, ptr %0, i64 196
  store i32 %.lobit52, ptr %40, align 4, !tbaa !47
  ret void
}